target datalayout = "e-m:e-p270:32:32-p271:32:32-p272:64:64-i64:64-i128:128-f80:128-n8:16:32:64-S128"
target triple = "x86_64-pc-linux-gnu"

%struct.AVChannelLayout = type { i32, i32, %union.anon.0, ptr }
%union.anon.0 = type { i64 }
%struct.AVCodecContext = type { ptr, i32, i32, ptr, i32, i32, ptr, ptr, ptr, i64, i32, i32, ptr, i32, %struct.AVRational, %struct.AVRational, %struct.AVRational, i32, i32, i32, i32, i32, %struct.AVRational, i32, i32, i32, i32, i32, i32, i32, i32, i32, i32, i32, ptr, ptr, i32, float, float, float, float, float, float, float, float, float, i32, i32, i32, i32, i32, i32, i32, i32, i32, i32, i32, i32, ptr, ptr, ptr, i32, i32, i32, i32, i32, i32, i32, i32, i32, i32, %struct.AVChannelLayout, i32, i32, i32, i32, i32, i32, i32, i32, ptr, i32, i32, i32, float, float, i32, i32, i32, i32, i32, ptr, i64, i64, float, float, i32, i32, ptr, ptr, i32, i32, i32, i32, i32, ptr, ptr, ptr, ptr, i32, i32, [8 x i64], i32, i32, i32, i32, i32, i32, i32, ptr, ptr, i32, i32, i32, i32, i32, i32, i32, i32, i32, i32, ptr, ptr, i32, i32, ptr, ptr, ptr, ptr, i32, i32, i64, i32, i32, i64, ptr, i64, ptr, i32, ptr, i32 }
%struct.AVRational = type { i32, i32 }
%struct.AMRChannelsContext = type { [2 x %struct.AMRContext] }
%struct.AMRContext = type { %struct.AMRNBFrame, i8, i32, [10 x i16], [4 x [10 x double]], [10 x double], [4 x [10 x float]], [10 x float], [4 x [10 x float]], i8, [194 x float], ptr, [40 x float], [40 x float], [4 x float], [5 x float], [5 x float], float, i8, i8, float, i8, i8, [10 x float], float, float, [2 x float], [50 x float], %struct.ACELPFContext, %struct.ACELPVContext, %struct.CELPFContext, %struct.CELPMContext }
%struct.AMRNBFrame = type { [5 x i16], [4 x %struct.AMRNBSubframe] }
%struct.AMRNBSubframe = type { i16, i16, i16, [10 x i16] }
%struct.ACELPFContext = type { ptr, ptr }
%struct.ACELPVContext = type { ptr }
%struct.CELPFContext = type { ptr, ptr }
%struct.CELPMContext = type { ptr }

@.str.2 = private unnamed_addr constant [15 x i8] c">2 channel AMR\00", align 1
@lsp_sub4_init = internal constant [10 x i8] c"\1E\1A\15\0F\08\00\F8\F1\EB\E6", align 1
@lsp_avg_init = internal constant [10 x i16] [i16 1384, i16 2077, i16 3420, i16 5108, i16 6742, i16 8122, i16 9863, i16 11092, i16 12714, i16 13701], align 16

; Function Attrs: cold nounwind optsize uwtable
define internal i32 @amrnb_decode_init(ptr noundef %0) #0 {
  %2 = alloca i32, align 4
  %3 = alloca ptr, align 8
  %4 = alloca ptr, align 8
  %5 = alloca i32, align 4
  %6 = alloca i32, align 4
  %7 = alloca %struct.AVChannelLayout, align 8
  %8 = alloca i32, align 4
  %9 = alloca ptr, align 8
  store ptr %0, ptr %3, align 8, !tbaa !4
  call void @llvm.lifetime.start.p0(i64 8, ptr %4) #9
  %10 = load ptr, ptr %3, align 8, !tbaa !4
  %11 = getelementptr inbounds nuw %struct.AVCodecContext, ptr %10, i32 0, i32 6
  %12 = load ptr, ptr %11, align 8, !tbaa !9
  store ptr %12, ptr %4, align 8, !tbaa !29
  call void @llvm.lifetime.start.p0(i64 4, ptr %5) #9
  %13 = load ptr, ptr %3, align 8, !tbaa !4
  %14 = getelementptr inbounds nuw %struct.AVCodecContext, ptr %13, i32 0, i32 71
  %15 = getelementptr inbounds nuw %struct.AVChannelLayout, ptr %14, i32 0, i32 1
  %16 = load i32, ptr %15, align 4, !tbaa !31
  %17 = icmp sgt i32 %16, 2
  br i1 %17, label %18, label %20

18:                                               ; preds = %1
  %19 = load ptr, ptr %3, align 8, !tbaa !4
  call void (ptr, ptr, ...) @avpriv_report_missing_feature(ptr noundef %19, ptr noundef @.str.2)
  store i32 -1163346256, ptr %2, align 4
  store i32 1, ptr %6, align 4
  br label %130

20:                                               ; preds = %1
  %21 = load ptr, ptr %3, align 8, !tbaa !4
  %22 = getelementptr inbounds nuw %struct.AVCodecContext, ptr %21, i32 0, i32 71
  %23 = getelementptr inbounds nuw %struct.AVChannelLayout, ptr %22, i32 0, i32 1
  %24 = load i32, ptr %23, align 4, !tbaa !31
  %25 = icmp ne i32 %24, 0
  br i1 %25, label %35, label %26

26:                                               ; preds = %20
  %27 = load ptr, ptr %3, align 8, !tbaa !4
  %28 = getelementptr inbounds nuw %struct.AVCodecContext, ptr %27, i32 0, i32 71
  call void @av_channel_layout_uninit(ptr noundef %28)
  %29 = load ptr, ptr %3, align 8, !tbaa !4
  %30 = getelementptr inbounds nuw %struct.AVCodecContext, ptr %29, i32 0, i32 71
  %31 = getelementptr inbounds nuw %struct.AVChannelLayout, ptr %7, i32 0, i32 0
  store i32 1, ptr %31, align 8, !tbaa !32
  %32 = getelementptr inbounds nuw %struct.AVChannelLayout, ptr %7, i32 0, i32 1
  store i32 1, ptr %32, align 4, !tbaa !33
  %33 = getelementptr inbounds nuw %struct.AVChannelLayout, ptr %7, i32 0, i32 2
  store i64 4, ptr %33, align 8, !tbaa !34
  %34 = getelementptr inbounds nuw %struct.AVChannelLayout, ptr %7, i32 0, i32 3
  store ptr null, ptr %34, align 8, !tbaa !35
  call void @llvm.memcpy.p0.p0.i64(ptr align 8 %30, ptr align 8 %7, i64 24, i1 false), !tbaa.struct !36
  br label %35

35:                                               ; preds = %26, %20
  %36 = load ptr, ptr %3, align 8, !tbaa !4
  %37 = getelementptr inbounds nuw %struct.AVCodecContext, ptr %36, i32 0, i32 69
  %38 = load i32, ptr %37, align 8, !tbaa !39
  %39 = icmp ne i32 %38, 0
  br i1 %39, label %43, label %40

40:                                               ; preds = %35
  %41 = load ptr, ptr %3, align 8, !tbaa !4
  %42 = getelementptr inbounds nuw %struct.AVCodecContext, ptr %41, i32 0, i32 69
  store i32 8000, ptr %42, align 8, !tbaa !39
  br label %43

43:                                               ; preds = %40, %35
  %44 = load ptr, ptr %3, align 8, !tbaa !4
  %45 = getelementptr inbounds nuw %struct.AVCodecContext, ptr %44, i32 0, i32 70
  store i32 8, ptr %45, align 4, !tbaa !40
  call void @llvm.lifetime.start.p0(i64 4, ptr %8) #9
  store i32 0, ptr %8, align 4, !tbaa !37
  br label %46

46:                                               ; preds = %126, %43
  %47 = load i32, ptr %8, align 4, !tbaa !37
  %48 = load ptr, ptr %3, align 8, !tbaa !4
  %49 = getelementptr inbounds nuw %struct.AVCodecContext, ptr %48, i32 0, i32 71
  %50 = getelementptr inbounds nuw %struct.AVChannelLayout, ptr %49, i32 0, i32 1
  %51 = load i32, ptr %50, align 4, !tbaa !31
  %52 = icmp slt i32 %47, %51
  br i1 %52, label %54, label %53

53:                                               ; preds = %46
  store i32 2, ptr %6, align 4
  call void @llvm.lifetime.end.p0(i64 4, ptr %8) #9
  br label %129

54:                                               ; preds = %46
  call void @llvm.lifetime.start.p0(i64 8, ptr %9) #9
  %55 = load ptr, ptr %4, align 8, !tbaa !29
  %56 = getelementptr inbounds nuw %struct.AMRChannelsContext, ptr %55, i32 0, i32 0
  %57 = load i32, ptr %8, align 4, !tbaa !37
  %58 = sext i32 %57 to i64
  %59 = getelementptr inbounds [2 x %struct.AMRContext], ptr %56, i64 0, i64 %58
  store ptr %59, ptr %9, align 8, !tbaa !41
  %60 = load ptr, ptr %9, align 8, !tbaa !41
  %61 = getelementptr inbounds nuw %struct.AMRContext, ptr %60, i32 0, i32 10
  %62 = getelementptr inbounds [194 x float], ptr %61, i64 0, i64 154
  %63 = load ptr, ptr %9, align 8, !tbaa !41
  %64 = getelementptr inbounds nuw %struct.AMRContext, ptr %63, i32 0, i32 11
  store ptr %62, ptr %64, align 8, !tbaa !43
  store i32 0, ptr %5, align 4, !tbaa !37
  br label %65

65:                                               ; preds = %101, %54
  %66 = load i32, ptr %5, align 4, !tbaa !37
  %67 = icmp slt i32 %66, 10
  br i1 %67, label %68, label %104

68:                                               ; preds = %65
  %69 = load i32, ptr %5, align 4, !tbaa !37
  %70 = sext i32 %69 to i64
  %71 = getelementptr inbounds [10 x i8], ptr @lsp_sub4_init, i64 0, i64 %70
  %72 = load i8, ptr %71, align 1, !tbaa !34
  %73 = sext i8 %72 to i32
  %74 = mul nsw i32 %73, 1000
  %75 = sitofp i32 %74 to float
  %76 = fdiv nsz float %75, 3.276800e+04
  %77 = fpext nsz float %76 to double
  %78 = load ptr, ptr %9, align 8, !tbaa !41
  %79 = getelementptr inbounds nuw %struct.AMRContext, ptr %78, i32 0, i32 5
  %80 = load i32, ptr %5, align 4, !tbaa !37
  %81 = sext i32 %80 to i64
  %82 = getelementptr inbounds [10 x double], ptr %79, i64 0, i64 %81
  store double %77, ptr %82, align 8, !tbaa !51
  %83 = load i32, ptr %5, align 4, !tbaa !37
  %84 = sext i32 %83 to i64
  %85 = getelementptr inbounds [10 x i16], ptr @lsp_avg_init, i64 0, i64 %84
  %86 = load i16, ptr %85, align 2, !tbaa !53
  %87 = sext i16 %86 to i32
  %88 = sitofp i32 %87 to float
  %89 = fdiv nsz float %88, 3.276800e+04
  %90 = load ptr, ptr %9, align 8, !tbaa !41
  %91 = getelementptr inbounds nuw %struct.AMRContext, ptr %90, i32 0, i32 6
  %92 = getelementptr inbounds [4 x [10 x float]], ptr %91, i64 0, i64 3
  %93 = load i32, ptr %5, align 4, !tbaa !37
  %94 = sext i32 %93 to i64
  %95 = getelementptr inbounds [10 x float], ptr %92, i64 0, i64 %94
  store float %89, ptr %95, align 4, !tbaa !55
  %96 = load ptr, ptr %9, align 8, !tbaa !41
  %97 = getelementptr inbounds nuw %struct.AMRContext, ptr %96, i32 0, i32 7
  %98 = load i32, ptr %5, align 4, !tbaa !37
  %99 = sext i32 %98 to i64
  %100 = getelementptr inbounds [10 x float], ptr %97, i64 0, i64 %99
  store float %89, ptr %100, align 4, !tbaa !55
  br label %101

101:                                              ; preds = %68
  %102 = load i32, ptr %5, align 4, !tbaa !37
  %103 = add nsw i32 %102, 1
  store i32 %103, ptr %5, align 4, !tbaa !37
  br label %65, !llvm.loop !56

104:                                              ; preds = %65
  store i32 0, ptr %5, align 4, !tbaa !37
  br label %105

105:                                              ; preds = %114, %104
  %106 = load i32, ptr %5, align 4, !tbaa !37
  %107 = icmp slt i32 %106, 4
  br i1 %107, label %108, label %117

108:                                              ; preds = %105
  %109 = load ptr, ptr %9, align 8, !tbaa !41
  %110 = getelementptr inbounds nuw %struct.AMRContext, ptr %109, i32 0, i32 14
  %111 = load i32, ptr %5, align 4, !tbaa !37
  %112 = sext i32 %111 to i64
  %113 = getelementptr inbounds [4 x float], ptr %110, i64 0, i64 %112
  store float -1.400000e+01, ptr %113, align 4, !tbaa !55
  br label %114

114:                                              ; preds = %108
  %115 = load i32, ptr %5, align 4, !tbaa !37
  %116 = add nsw i32 %115, 1
  store i32 %116, ptr %5, align 4, !tbaa !37
  br label %105, !llvm.loop !58

117:                                              ; preds = %105
  %118 = load ptr, ptr %9, align 8, !tbaa !41
  %119 = getelementptr inbounds nuw %struct.AMRContext, ptr %118, i32 0, i32 28
  call void @ff_acelp_filter_init(ptr noundef %119)
  %120 = load ptr, ptr %9, align 8, !tbaa !41
  %121 = getelementptr inbounds nuw %struct.AMRContext, ptr %120, i32 0, i32 29
  call void @ff_acelp_vectors_init(ptr noundef %121)
  %122 = load ptr, ptr %9, align 8, !tbaa !41
  %123 = getelementptr inbounds nuw %struct.AMRContext, ptr %122, i32 0, i32 30
  call void @ff_celp_filter_init(ptr noundef %123)
  %124 = load ptr, ptr %9, align 8, !tbaa !41
  %125 = getelementptr inbounds nuw %struct.AMRContext, ptr %124, i32 0, i32 31
  call void @ff_celp_math_init(ptr noundef %125)
  call void @llvm.lifetime.end.p0(i64 8, ptr %9) #9
  br label %126

126:                                              ; preds = %117
  %127 = load i32, ptr %8, align 4, !tbaa !37
  %128 = add nsw i32 %127, 1
  store i32 %128, ptr %8, align 4, !tbaa !37
  br label %46, !llvm.loop !59

129:                                              ; preds = %53
  store i32 0, ptr %2, align 4
  store i32 1, ptr %6, align 4
  br label %130

130:                                              ; preds = %129, %18
  call void @llvm.lifetime.end.p0(i64 4, ptr %5) #9
  call void @llvm.lifetime.end.p0(i64 8, ptr %4) #9
  %131 = load i32, ptr %2, align 4
  ret i32 %131
}