; Function Attrs: cold nounwind optsize uwtable
define internal range(i32 -1163346256, 1) i32 @amrnb_decode_init(ptr noundef %0) #0 {
  %2 = getelementptr inbounds nuw i8, ptr %0, i64 32
  %3 = load ptr, ptr %2, align 8, !tbaa !4
  %4 = getelementptr inbounds nuw i8, ptr %0, i64 352
  %5 = getelementptr inbounds nuw i8, ptr %0, i64 356
  %6 = load i32, ptr %5, align 4, !tbaa !27
  %7 = icmp sgt i32 %6, 2
  br i1 %7, label %8, label %9

8:                                                ; preds = %1
  tail call void (ptr, ptr, ...) @avpriv_report_missing_feature(ptr noundef nonnull %0, ptr noundef nonnull @.str.2) #8
  br label %.loopexit

9:                                                ; preds = %1
  %.not = icmp eq i32 %6, 0
  br i1 %.not, label %10, label %11

10:                                               ; preds = %9
  tail call void @av_channel_layout_uninit(ptr noundef nonnull %4) #8
  store i32 1, ptr %4, align 8, !tbaa !28
  store i32 1, ptr %5, align 4, !tbaa !28
  %.sroa.3.0..sroa_idx = getelementptr inbounds nuw i8, ptr %0, i64 360
  store i64 4, ptr %.sroa.3.0..sroa_idx, align 8, !tbaa !29
  %.sroa.4.0..sroa_idx = getelementptr inbounds nuw i8, ptr %0, i64 368
  store ptr null, ptr %.sroa.4.0..sroa_idx, align 8, !tbaa !30
  br label %11

11:                                               ; preds = %10, %9
  %12 = phi i32 [ 1, %10 ], [ %6, %9 ]
  %13 = getelementptr inbounds nuw i8, ptr %0, i64 344
  %14 = load i32, ptr %13, align 8, !tbaa !31
  %.not37 = icmp eq i32 %14, 0
  br i1 %.not37, label %15, label %16

15:                                               ; preds = %11
  store i32 8000, ptr %13, align 8, !tbaa !31
  br label %16

16:                                               ; preds = %15, %11
  %17 = getelementptr inbounds nuw i8, ptr %0, i64 348
  store i32 8, ptr %17, align 4, !tbaa !32
  %18 = icmp sgt i32 %12, 0
  br i1 %18, label %.lr.ph, label %.loopexit

.lr.ph:                                           ; preds = %16, %43
  %indvars.iv46 = phi i64 [ %indvars.iv.next47, %43 ], [ 0, %16 ]
  %19 = getelementptr inbounds nuw [2 x %struct.AMRContext], ptr %3, i64 0, i64 %indvars.iv46
  %20 = getelementptr inbounds nuw i8, ptr %19, i64 1524
  %21 = getelementptr inbounds nuw i8, ptr %19, i64 1688
  store ptr %20, ptr %21, align 8, !tbaa !33
  %22 = getelementptr inbounds nuw i8, ptr %19, i64 464
  %23 = getelementptr inbounds nuw i8, ptr %19, i64 664
  %24 = getelementptr inbounds nuw i8, ptr %19, i64 704
  br label %26

.preheader:                                       ; preds = %26
  %25 = getelementptr inbounds nuw i8, ptr %19, i64 2016
  br label %41

26:                                               ; preds = %.lr.ph, %26
  %indvars.iv = phi i64 [ 0, %.lr.ph ], [ %indvars.iv.next, %26 ]
  %27 = getelementptr inbounds nuw [10 x i8], ptr @lsp_sub4_init, i64 0, i64 %indvars.iv
  %28 = load i8, ptr %27, align 1, !tbaa !29
  %29 = sext i8 %28 to i32
  %30 = mul nsw i32 %29, 1000
  %31 = sitofp i32 %30 to float
  %32 = fmul nsz float %31, 0x3F00000000000000
  %33 = fpext nsz float %32 to double
  %34 = getelementptr inbounds nuw [10 x double], ptr %22, i64 0, i64 %indvars.iv
  store double %33, ptr %34, align 8, !tbaa !41
  %35 = getelementptr inbounds nuw [10 x i16], ptr @lsp_avg_init, i64 0, i64 %indvars.iv
  %36 = load i16, ptr %35, align 2, !tbaa !43
  %37 = sitofp i16 %36 to float
  %38 = fmul nsz float %37, 0x3F00000000000000
  %39 = getelementptr inbounds nuw [10 x float], ptr %23, i64 0, i64 %indvars.iv
  store float %38, ptr %39, align 4, !tbaa !45
  %40 = getelementptr inbounds nuw [10 x float], ptr %24, i64 0, i64 %indvars.iv
  store float %38, ptr %40, align 4, !tbaa !45
  %indvars.iv.next = add nuw nsw i64 %indvars.iv, 1
  %exitcond.not = icmp eq i64 %indvars.iv.next, 10
  br i1 %exitcond.not, label %.preheader, label %26, !llvm.loop !46

41:                                               ; preds = %.preheader, %41
  %indvars.iv42 = phi i64 [ 0, %.preheader ], [ %indvars.iv.next43, %41 ]
  %42 = getelementptr inbounds nuw [4 x float], ptr %25, i64 0, i64 %indvars.iv42
  store float -1.400000e+01, ptr %42, align 4, !tbaa !45
  %indvars.iv.next43 = add nuw nsw i64 %indvars.iv42, 1
  %exitcond45.not = icmp eq i64 %indvars.iv.next43, 4
  br i1 %exitcond45.not, label %43, label %41, !llvm.loop !48

43:                                               ; preds = %41
  %44 = getelementptr inbounds nuw i8, ptr %19, i64 2344
  tail call void @ff_acelp_filter_init(ptr noundef nonnull %44) #8
  %45 = getelementptr inbounds nuw i8, ptr %19, i64 2360
  tail call void @ff_acelp_vectors_init(ptr noundef nonnull %45) #8
  %46 = getelementptr inbounds nuw i8, ptr %19, i64 2368
  tail call void @ff_celp_filter_init(ptr noundef nonnull %46) #8
  %47 = getelementptr inbounds nuw i8, ptr %19, i64 2384
  tail call void @ff_celp_math_init(ptr noundef nonnull %47) #8
  %indvars.iv.next47 = add nuw nsw i64 %indvars.iv46, 1
  %48 = load i32, ptr %5, align 4, !tbaa !27
  %49 = sext i32 %48 to i64
  %50 = icmp slt i64 %indvars.iv.next47, %49
  br i1 %50, label %.lr.ph, label %.loopexit, !llvm.loop !49

.loopexit:                                        ; preds = %43, %16, %8
  %.0 = phi i32 [ -1163346256, %8 ], [ 0, %16 ], [ 0, %43 ]
  ret i32 %.0
}